target datalayout = "e-m:e-p270:32:32-p271:32:32-p272:64:64-i64:64-i128:128-f80:128-n8:16:32:64-S128"
target triple = "x86_64-pc-linux-gnu"

%union.pthread_mutex_t = type { %struct.__pthread_mutex_s }
%struct.__pthread_mutex_s = type { i32, i32, i32, i32, i32, i16, i16, %struct.__pthread_internal_list }
%struct.__pthread_internal_list = type { ptr, ptr }
%struct.pmix_tma = type { ptr, ptr, ptr, ptr, ptr, ptr, ptr, ptr }
%struct.pmix_mca_base_var_enum_t = type { %struct.pmix_object_t, i8, ptr, ptr, ptr, ptr, ptr, ptr, i32, ptr }
%struct.pmix_object_t = type { %union.pthread_mutex_t, ptr, i32, %struct.pmix_tma }
%struct.pmix_mca_base_var_enum_flag_t = type { %struct.pmix_mca_base_var_enum_t, ptr }

; Function Attrs: nounwind uwtable
define internal void @pmix_mca_base_var_enum_flag_constructor(ptr noundef %0) #0 {
  %2 = alloca ptr, align 8
  store ptr %0, ptr %2, align 8, !tbaa !30
  %3 = load ptr, ptr %2, align 8, !tbaa !30
  %4 = getelementptr inbounds nuw %struct.pmix_mca_base_var_enum_flag_t, ptr %3, i32 0, i32 1
  store ptr null, ptr %4, align 8, !tbaa !32
  %5 = load ptr, ptr %2, align 8, !tbaa !30
  %6 = getelementptr inbounds nuw %struct.pmix_mca_base_var_enum_flag_t, ptr %5, i32 0, i32 0
  %7 = getelementptr inbounds nuw %struct.pmix_mca_base_var_enum_t, ptr %6, i32 0, i32 4
  store ptr @enum_get_value_flag, ptr %7, align 8, !tbaa !35
  %8 = load ptr, ptr %2, align 8, !tbaa !30
  %9 = getelementptr inbounds nuw %struct.pmix_mca_base_var_enum_flag_t, ptr %8, i32 0, i32 0
  %10 = getelementptr inbounds nuw %struct.pmix_mca_base_var_enum_t, ptr %9, i32 0, i32 3
  store ptr @enum_get_count, ptr %10, align 8, !tbaa !36
  %11 = load ptr, ptr %2, align 8, !tbaa !30
  %12 = getelementptr inbounds nuw %struct.pmix_mca_base_var_enum_flag_t, ptr %11, i32 0, i32 0
  %13 = getelementptr inbounds nuw %struct.pmix_mca_base_var_enum_t, ptr %12, i32 0, i32 5
  store ptr @enum_value_from_string_flag, ptr %13, align 8, !tbaa !37
  %14 = load ptr, ptr %2, align 8, !tbaa !30
  %15 = getelementptr inbounds nuw %struct.pmix_mca_base_var_enum_flag_t, ptr %14, i32 0, i32 0
  %16 = getelementptr inbounds nuw %struct.pmix_mca_base_var_enum_t, ptr %15, i32 0, i32 6
  store ptr @enum_string_from_value_flag, ptr %16, align 8, !tbaa !38
  %17 = load ptr, ptr %2, align 8, !tbaa !30
  %18 = getelementptr inbounds nuw %struct.pmix_mca_base_var_enum_flag_t, ptr %17, i32 0, i32 0
  %19 = getelementptr inbounds nuw %struct.pmix_mca_base_var_enum_t, ptr %18, i32 0, i32 7
  store ptr @enum_dump_flag, ptr %19, align 8, !tbaa !39
  %20 = load ptr, ptr %2, align 8, !tbaa !30
  %21 = getelementptr inbounds nuw %struct.pmix_mca_base_var_enum_flag_t, ptr %20, i32 0, i32 0
  %22 = getelementptr inbounds nuw %struct.pmix_mca_base_var_enum_t, ptr %21, i32 0, i32 1
  store i8 0, ptr %22, align 8, !tbaa !40
  ret void
}