; Function Attrs: mustprogress nofree norecurse nosync nounwind willreturn memory(argmem: write) uwtable
define internal void @pmix_mca_base_var_enum_flag_constructor(ptr noundef writeonly captures(none) initializes((120, 121), (136, 176), (192, 200)) %0) #0 {
  %2 = getelementptr inbounds nuw i8, ptr %0, i64 192
  store ptr null, ptr %2, align 8, !tbaa !27
  %3 = getelementptr inbounds nuw i8, ptr %0, i64 144
  store ptr @enum_get_value_flag, ptr %3, align 8, !tbaa !30
  %4 = getelementptr inbounds nuw i8, ptr %0, i64 136
  store ptr @enum_get_count, ptr %4, align 8, !tbaa !31
  %5 = getelementptr inbounds nuw i8, ptr %0, i64 152
  store ptr @enum_value_from_string_flag, ptr %5, align 8, !tbaa !32
  %6 = getelementptr inbounds nuw i8, ptr %0, i64 160
  store ptr @enum_string_from_value_flag, ptr %6, align 8, !tbaa !33
  %7 = getelementptr inbounds nuw i8, ptr %0, i64 168
  store ptr @enum_dump_flag, ptr %7, align 8, !tbaa !34
  %8 = getelementptr inbounds nuw i8, ptr %0, i64 120
  store i8 0, ptr %8, align 8, !tbaa !35
  ret void
}